target datalayout = "e-m:e-p270:32:32-p271:32:32-p272:64:64-i64:64-i128:128-f80:128-n8:16:32:64-S128"
target triple = "x86_64-pc-linux-gnu"

@global_ssn_range = internal global ptr null, align 8
@.str.1194 = private unnamed_addr constant [41 x i8] c"Intelligent Network Application Protocol\00", align 1
@.str.1195 = private unnamed_addr constant [5 x i8] c"INAP\00", align 1
@.str.1196 = private unnamed_addr constant [5 x i8] c"inap\00", align 1
@proto_inap = internal global i32 0, align 4
@inap_handle = internal global ptr null, align 8
@.str.1197 = private unnamed_addr constant [16 x i8] c"0.4.0.1.1.1.0.0\00", align 1
@.str.1198 = private unnamed_addr constant [15 x i8] c"cs1-ssp-to-scp\00", align 1
@.str.1199 = private unnamed_addr constant [8 x i8] c"106,241\00", align 1
@.str.1200 = private unnamed_addr constant [13 x i8] c"tcap.itu_ssn\00", align 1
@.str.1201 = private unnamed_addr constant [14 x i8] c"tcap.itu_ssn1\00", align 1
@.str.1202 = private unnamed_addr constant [4 x i8] c"ssn\00", align 1
@.str.1203 = private unnamed_addr constant [10 x i8] c"TCAP SSNs\00", align 1
@.str.1204 = private unnamed_addr constant [37 x i8] c"TCAP Subsystem numbers used for INAP\00", align 1

; Function Attrs: null_pointer_is_valid sspstrong uwtable
define hidden void @proto_register_inap() #0 {
  %1 = alloca ptr, align 8
  %2 = alloca ptr, align 8
  call void @llvm.lifetime.start.p0(i64 8, ptr %1) #4
  call void @llvm.lifetime.start.p0(i64 8, ptr %2) #4
  %3 = call i32 @proto_register_protocol(ptr noundef @.str.1194, ptr noundef @.str.1195, ptr noundef @.str.1196)
  store i32 %3, ptr @proto_inap, align 4
  %4 = load i32, ptr @proto_inap, align 4
  %5 = call ptr @register_dissector(ptr noundef @.str.1196, ptr noundef @dissect_inap, i32 noundef %4)
  store ptr %5, ptr @inap_handle, align 8
  %6 = load i32, ptr @proto_inap, align 4
  call void @proto_register_field_array(i32 noundef %6, ptr noundef @proto_register_inap.hf, i32 noundef 561)
  call void @proto_register_subtree_array(ptr noundef @proto_register_inap.ett, i32 noundef 257)
  %7 = load i32, ptr @proto_inap, align 4
  %8 = call ptr @expert_register_protocol(i32 noundef %7)
  store ptr %8, ptr %2, align 8
  %9 = load ptr, ptr %2, align 8
  call void @expert_register_field_array(ptr noundef %9, ptr noundef @proto_register_inap.ei, i32 noundef 3)
  %10 = load i32, ptr @proto_inap, align 4
  call void @register_ber_oid_dissector(ptr noundef @.str.1197, ptr noundef @dissect_inap, i32 noundef %10, ptr noundef @.str.1198)
  %11 = call ptr @wmem_epan_scope()
  %12 = call i32 @range_convert_str(ptr noundef %11, ptr noundef @global_ssn_range, ptr noundef @.str.1199, i32 noundef 254)
  %13 = load i32, ptr @proto_inap, align 4
  %14 = call ptr @prefs_register_protocol(i32 noundef %13, ptr noundef @proto_reg_handoff_inap)
  store ptr %14, ptr %1, align 8
  %15 = load ptr, ptr %1, align 8
  call void @prefs_register_obsolete_preference(ptr noundef %15, ptr noundef @.str.1200)
  %16 = load ptr, ptr %1, align 8
  call void @prefs_register_obsolete_preference(ptr noundef %16, ptr noundef @.str.1201)
  %17 = load ptr, ptr %1, align 8
  call void @prefs_register_range_preference(ptr noundef %17, ptr noundef @.str.1202, ptr noundef @.str.1203, ptr noundef @.str.1204, ptr noundef @global_ssn_range, i32 noundef 254)
  call void @llvm.lifetime.end.p0(i64 8, ptr %2) #4
  call void @llvm.lifetime.end.p0(i64 8, ptr %1) #4
  ret void
}