; Function Attrs: null_pointer_is_valid sspstrong uwtable
define hidden void @proto_register_inap() local_unnamed_addr #0 {
  %1 = tail call i32 @proto_register_protocol(ptr noundef nonnull @.str.1194, ptr noundef nonnull @.str.1195, ptr noundef nonnull @.str.1196)
  store i32 %1, ptr @proto_inap, align 4
  %2 = tail call ptr @register_dissector(ptr noundef nonnull @.str.1196, ptr noundef nonnull @dissect_inap, i32 noundef %1)
  store ptr %2, ptr @inap_handle, align 8
  %3 = load i32, ptr @proto_inap, align 4
  tail call void @proto_register_field_array(i32 noundef %3, ptr noundef nonnull @proto_register_inap.hf, i32 noundef 561)
  tail call void @proto_register_subtree_array(ptr noundef nonnull @proto_register_inap.ett, i32 noundef 257)
  %4 = load i32, ptr @proto_inap, align 4
  %5 = tail call ptr @expert_register_protocol(i32 noundef %4)
  tail call void @expert_register_field_array(ptr noundef %5, ptr noundef nonnull @proto_register_inap.ei, i32 noundef 3)
  %6 = load i32, ptr @proto_inap, align 4
  tail call void @register_ber_oid_dissector(ptr noundef nonnull @.str.1197, ptr noundef nonnull @dissect_inap, i32 noundef %6, ptr noundef nonnull @.str.1198)
  %7 = tail call ptr @wmem_epan_scope()
  %8 = tail call i32 @range_convert_str(ptr noundef %7, ptr noundef nonnull @global_ssn_range, ptr noundef nonnull @.str.1199, i32 noundef 254)
  %9 = load i32, ptr @proto_inap, align 4
  %10 = tail call ptr @prefs_register_protocol(i32 noundef %9, ptr noundef nonnull @proto_reg_handoff_inap)
  tail call void @prefs_register_obsolete_preference(ptr noundef %10, ptr noundef nonnull @.str.1200)
  tail call void @prefs_register_obsolete_preference(ptr noundef %10, ptr noundef nonnull @.str.1201)
  tail call void @prefs_register_range_preference(ptr noundef %10, ptr noundef nonnull @.str.1202, ptr noundef nonnull @.str.1203, ptr noundef nonnull @.str.1204, ptr noundef nonnull @global_ssn_range, i32 noundef 254)
  ret void
}